; ModuleID = '24/318.c'
source_filename = "24/318.c"
target datalayout = "e-m:e-p270:32:32-p271:32:32-p272:64:64-i64:64-f80:128-n8:16:32:64-S128"
target triple = "x86_64-pc-linux-gnu"

@.str = private unnamed_addr constant [3 x i8] c"%c\00", align 1
@.str.1 = private unnamed_addr constant [2 x i8] c"\0A\00", align 1

; Function Attrs: noinline nounwind uwtable
define dso_local void @main() #0 {
  %1 = alloca [1000 x i8], align 16
  %2 = alloca [50 x i32], align 16
  %3 = alloca i32, align 4
  %4 = alloca i32, align 4
  %5 = alloca i32, align 4
  %6 = alloca [50 x i32], align 16
  %7 = alloca i32, align 4
  %8 = alloca i32, align 4
  %9 = alloca i32, align 4
  store i32 0, i32* %4, align 4
  store i32 0, i32* %7, align 4
  store i32 1000, i32* %8, align 4
  %10 = getelementptr inbounds [1000 x i8], [1000 x i8]* %1, i64 0, i64 0
  %11 = call i32 (i8*, ...) bitcast (i32 (...)* @gets to i32 (i8*, ...)*)(i8* %10)
  %12 = getelementptr inbounds [1000 x i8], [1000 x i8]* %1, i64 0, i64 0
  %13 = call i64 @strlen(i8* %12) #3
  %14 = trunc i64 %13 to i32
  store i32 %14, i32* %5, align 4
  %15 = getelementptr inbounds [50 x i32], [50 x i32]* %2, i64 0, i64 0
  store i32 0, i32* %15, align 16
  store i32 0, i32* %3, align 4
  br label %16

16:                                               ; preds = %36, %0
  %17 = load i32, i32* %3, align 4
  %18 = load i32, i32* %5, align 4
  %19 = icmp slt i32 %17, %18
  br i1 %19, label %20, label %39

20:                                               ; preds = %16
  %21 = load i32, i32* %3, align 4
  %22 = sext i32 %21 to i64
  %23 = getelementptr inbounds [1000 x i8], [1000 x i8]* %1, i64 0, i64 %22
  %24 = load i8, i8* %23, align 1
  %25 = sext i8 %24 to i32
  %26 = icmp eq i32 %25, 32
  br i1 %26, label %27, label %35

27:                                               ; preds = %20
  %28 = load i32, i32* %4, align 4
  %29 = add nsw i32 %28, 1
  store i32 %29, i32* %4, align 4
  %30 = load i32, i32* %3, align 4
  %31 = add nsw i32 %30, 1
  %32 = load i32, i32* %4, align 4
  %33 = sext i32 %32 to i64
  %34 = getelementptr inbounds [50 x i32], [50 x i32]* %2, i64 0, i64 %33
  store i32 %31, i32* %34, align 4
  br label %35

35:                                               ; preds = %27, %20
  br label %36

36:                                               ; preds = %35
  %37 = load i32, i32* %3, align 4
  %38 = add nsw i32 %37, 1
  store i32 %38, i32* %3, align 4
  br label %16

39:                                               ; preds = %16
  %40 = load i32, i32* %5, align 4
  %41 = add nsw i32 %40, 1
  %42 = load i32, i32* %4, align 4
  %43 = add nsw i32 %42, 1
  %44 = sext i32 %43 to i64
  %45 = getelementptr inbounds [50 x i32], [50 x i32]* %2, i64 0, i64 %44
  store i32 %41, i32* %45, align 4
  store i32 0, i32* %3, align 4
  br label %46

46:                                               ; preds = %96, %39
  %47 = load i32, i32* %3, align 4
  %48 = load i32, i32* %4, align 4
  %49 = add nsw i32 %48, 1
  %50 = icmp slt i32 %47, %49
  br i1 %50, label %51, label %99

51:                                               ; preds = %46
  %52 = load i32, i32* %3, align 4
  %53 = add nsw i32 %52, 1
  %54 = sext i32 %53 to i64
  %55 = getelementptr inbounds [50 x i32], [50 x i32]* %2, i64 0, i64 %54
  %56 = load i32, i32* %55, align 4
  %57 = load i32, i32* %3, align 4
  %58 = sext i32 %57 to i64
  %59 = getelementptr inbounds [50 x i32], [50 x i32]* %2, i64 0, i64 %58
  %60 = load i32, i32* %59, align 4
  %61 = sub nsw i32 %56, %60
  %62 = sub nsw i32 %61, 1
  %63 = load i32, i32* %3, align 4
  %64 = sext i32 %63 to i64
  %65 = getelementptr inbounds [50 x i32], [50 x i32]* %6, i64 0, i64 %64
  store i32 %62, i32* %65, align 4
  %66 = load i32, i32* %7, align 4
  %67 = load i32, i32* %3, align 4
  %68 = sext i32 %67 to i64
  %69 = getelementptr inbounds [50 x i32], [50 x i32]* %6, i64 0, i64 %68
  %70 = load i32, i32* %69, align 4
  %71 = icmp sge i32 %66, %70
  br i1 %71, label %72, label %74

72:                                               ; preds = %51
  %73 = load i32, i32* %7, align 4
  br label %79

74:                                               ; preds = %51
  %75 = load i32, i32* %3, align 4
  %76 = sext i32 %75 to i64
  %77 = getelementptr inbounds [50 x i32], [50 x i32]* %6, i64 0, i64 %76
  %78 = load i32, i32* %77, align 4
  br label %79

79:                                               ; preds = %74, %72
  %80 = phi i32 [ %73, %72 ], [ %78, %74 ]
  store i32 %80, i32* %7, align 4
  %81 = load i32, i32* %8, align 4
  %82 = load i32, i32* %3, align 4
  %83 = sext i32 %82 to i64
  %84 = getelementptr inbounds [50 x i32], [50 x i32]* %6, i64 0, i64 %83
  %85 = load i32, i32* %84, align 4
  %86 = icmp sge i32 %81, %85
  br i1 %86, label %87, label %92

87:                                               ; preds = %79
  %88 = load i32, i32* %3, align 4
  %89 = sext i32 %88 to i64
  %90 = getelementptr inbounds [50 x i32], [50 x i32]* %6, i64 0, i64 %89
  %91 = load i32, i32* %90, align 4
  br label %94

92:                                               ; preds = %79
  %93 = load i32, i32* %8, align 4
  br label %94

94:                                               ; preds = %92, %87
  %95 = phi i32 [ %91, %87 ], [ %93, %92 ]
  store i32 %95, i32* %8, align 4
  br label %96

96:                                               ; preds = %94
  %97 = load i32, i32* %3, align 4
  %98 = add nsw i32 %97, 1
  store i32 %98, i32* %3, align 4
  br label %46

99:                                               ; preds = %46
  store i32 0, i32* %3, align 4
  br label %100

100:                                              ; preds = %138, %99
  %101 = load i32, i32* %3, align 4
  %102 = load i32, i32* %4, align 4
  %103 = add nsw i32 %102, 1
  %104 = icmp slt i32 %101, %103
  br i1 %104, label %105, label %141

105:                                              ; preds = %100
  %106 = load i32, i32* %3, align 4
  %107 = sext i32 %106 to i64
  %108 = getelementptr inbounds [50 x i32], [50 x i32]* %6, i64 0, i64 %107
  %109 = load i32, i32* %108, align 4
  %110 = load i32, i32* %7, align 4
  %111 = icmp eq i32 %109, %110
  br i1 %111, label %112, label %137

112:                                              ; preds = %105
  %113 = load i32, i32* %3, align 4
  %114 = sext i32 %113 to i64
  %115 = getelementptr inbounds [50 x i32], [50 x i32]* %2, i64 0, i64 %114
  %116 = load i32, i32* %115, align 4
  store i32 %116, i32* %9, align 4
  br label %117

117:                                              ; preds = %133, %112
  %118 = load i32, i32* %9, align 4
  %119 = load i32, i32* %3, align 4
  %120 = add nsw i32 %119, 1
  %121 = sext i32 %120 to i64
  %122 = getelementptr inbounds [50 x i32], [50 x i32]* %2, i64 0, i64 %121
  %123 = load i32, i32* %122, align 4
  %124 = sub nsw i32 %123, 1
  %125 = icmp slt i32 %118, %124
  br i1 %125, label %126, label %136

126:                                              ; preds = %117
  %127 = load i32, i32* %9, align 4
  %128 = sext i32 %127 to i64
  %129 = getelementptr inbounds [1000 x i8], [1000 x i8]* %1, i64 0, i64 %128
  %130 = load i8, i8* %129, align 1
  %131 = sext i8 %130 to i32
  %132 = call i32 (i8*, ...) @printf(i8* getelementptr inbounds ([3 x i8], [3 x i8]* @.str, i64 0, i64 0), i32 %131)
  br label %133

133:                                              ; preds = %126
  %134 = load i32, i32* %9, align 4
  %135 = add nsw i32 %134, 1
  store i32 %135, i32* %9, align 4
  br label %117

136:                                              ; preds = %117
  br label %141

137:                                              ; preds = %105
  br label %138

138:                                              ; preds = %137
  %139 = load i32, i32* %3, align 4
  %140 = add nsw i32 %139, 1
  store i32 %140, i32* %3, align 4
  br label %100

141:                                              ; preds = %136, %100
  %142 = call i32 (i8*, ...) @printf(i8* getelementptr inbounds ([2 x i8], [2 x i8]* @.str.1, i64 0, i64 0))
  store i32 0, i32* %3, align 4
  br label %143

143:                                              ; preds = %181, %141
  %144 = load i32, i32* %3, align 4
  %145 = load i32, i32* %4, align 4
  %146 = add nsw i32 %145, 1
  %147 = icmp slt i32 %144, %146
  br i1 %147, label %148, label %184

148:                                              ; preds = %143
  %149 = load i32, i32* %3, align 4
  %150 = sext i32 %149 to i64
  %151 = getelementptr inbounds [50 x i32], [50 x i32]* %6, i64 0, i64 %150
  %152 = load i32, i32* %151, align 4
  %153 = load i32, i32* %8, align 4
  %154 = icmp eq i32 %152, %153
  br i1 %154, label %155, label %180

155:                                              ; preds = %148
  %156 = load i32, i32* %3, align 4
  %157 = sext i32 %156 to i64
  %158 = getelementptr inbounds [50 x i32], [50 x i32]* %2, i64 0, i64 %157
  %159 = load i32, i32* %158, align 4
  store i32 %159, i32* %9, align 4
  br label %160

160:                                              ; preds = %176, %155
  %161 = load i32, i32* %9, align 4
  %162 = load i32, i32* %3, align 4
  %163 = add nsw i32 %162, 1
  %164 = sext i32 %163 to i64
  %165 = getelementptr inbounds [50 x i32], [50 x i32]* %2, i64 0, i64 %164
  %166 = load i32, i32* %165, align 4
  %167 = sub nsw i32 %166, 1
  %168 = icmp slt i32 %161, %167
  br i1 %168, label %169, label %179

169:                                              ; preds = %160
  %170 = load i32, i32* %9, align 4
  %171 = sext i32 %170 to i64
  %172 = getelementptr inbounds [1000 x i8], [1000 x i8]* %1, i64 0, i64 %171
  %173 = load i8, i8* %172, align 1
  %174 = sext i8 %173 to i32
  %175 = call i32 (i8*, ...) @printf(i8* getelementptr inbounds ([3 x i8], [3 x i8]* @.str, i64 0, i64 0), i32 %174)
  br label %176

176:                                              ; preds = %169
  %177 = load i32, i32* %9, align 4
  %178 = add nsw i32 %177, 1
  store i32 %178, i32* %9, align 4
  br label %160

179:                                              ; preds = %160
  br label %184

180:                                              ; preds = %148
  br label %181

181:                                              ; preds = %180
  %182 = load i32, i32* %3, align 4
  %183 = add nsw i32 %182, 1
  store i32 %183, i32* %3, align 4
  br label %143

184:                                              ; preds = %179, %143
  ret void
}

declare dso_local i32 @gets(...) #1

; Function Attrs: nounwind readonly
declare dso_local i64 @strlen(i8*) #2

declare dso_local i32 @printf(i8*, ...) #1


!llvm.module.flags = !{!0}
!llvm.ident = !{!1}

!0 = !{i32 1, !"wchar_size", i32 4}
!1 = !{!"clang version 10.0.0-4ubuntu1 "}
